target datalayout = "e-m:e-p270:32:32-p271:32:32-p272:64:64-i64:64-i128:128-f80:128-n8:16:32:64-S128"
target triple = "x86_64-unknown-linux-gnu"

%"class.grpc_core::XdsCertificateProvider::ClusterCertificateState" = type <{ ptr, i8, i8, [6 x i8], %"class.std::__cxx11::basic_string", %"class.std::__cxx11::basic_string", %"class.grpc_core::RefCountedPtr", %"class.grpc_core::RefCountedPtr", ptr, ptr, i8, [7 x i8] }>
%"class.std::__cxx11::basic_string" = type { %"struct.std::__cxx11::basic_string<char>::_Alloc_hider", i64, %union.anon }
%"struct.std::__cxx11::basic_string<char>::_Alloc_hider" = type { ptr }
%union.anon = type { i64, [8 x i8] }
%"class.grpc_core::RefCountedPtr" = type { ptr }

; Function Attrs: mustprogress nounwind uwtable
define linkonce_odr noundef zeroext i1 @_ZNK9grpc_core13RefCountedPtrI32grpc_tls_certificate_distributorEeqEDn(ptr noundef nonnull align 8 dereferenceable(8) %this, ptr %0) #4 comdat align 2 {
entry:
  %this.addr = alloca ptr, align 8
  %.addr = alloca ptr, align 8
  store ptr %this, ptr %this.addr, align 8
  store ptr %0, ptr %.addr, align 8
  %this1 = load ptr, ptr %this.addr, align 8
  %value_ = getelementptr inbounds %"class.grpc_core::RefCountedPtr", ptr %this1, i32 0, i32 0
  %1 = load ptr, ptr %value_, align 8
  %cmp = icmp eq ptr %1, null
  ret i1 %cmp
}

; Function Attrs: mustprogress uwtable
define noundef zeroext i1 @_ZNK9grpc_core22XdsCertificateProvider23ClusterCertificateState14IsSafeToRemoveEv(ptr noundef nonnull align 8 dereferenceable(113) %this) #6 align 2 {
entry:
  %this.addr = alloca ptr, align 8
  store ptr %this, ptr %this.addr, align 8
  %this1 = load ptr, ptr %this.addr, align 8
  %watching_root_certs_ = getelementptr inbounds %"class.grpc_core::XdsCertificateProvider::ClusterCertificateState", ptr %this1, i32 0, i32 1
  %0 = load i8, ptr %watching_root_certs_, align 8
  %tobool = trunc i8 %0 to i1
  br i1 %tobool, label %land.end, label %land.lhs.true

land.lhs.true:                                    ; preds = %entry
  %watching_identity_certs_ = getelementptr inbounds %"class.grpc_core::XdsCertificateProvider::ClusterCertificateState", ptr %this1, i32 0, i32 2
  %1 = load i8, ptr %watching_identity_certs_, align 1
  %tobool2 = trunc i8 %1 to i1
  br i1 %tobool2, label %land.end, label %land.lhs.true3

land.lhs.true3:                                   ; preds = %land.lhs.true
  %root_cert_distributor_ = getelementptr inbounds %"class.grpc_core::XdsCertificateProvider::ClusterCertificateState", ptr %this1, i32 0, i32 6
  %call = call noundef zeroext i1 @_ZNK9grpc_core13RefCountedPtrI32grpc_tls_certificate_distributorEeqEDn(ptr noundef nonnull align 8 dereferenceable(8) %root_cert_distributor_, ptr null)
  br i1 %call, label %land.rhs, label %land.end

land.rhs:                                         ; preds = %land.lhs.true3
  %identity_cert_distributor_ = getelementptr inbounds %"class.grpc_core::XdsCertificateProvider::ClusterCertificateState", ptr %this1, i32 0, i32 7
  %call4 = call noundef zeroext i1 @_ZNK9grpc_core13RefCountedPtrI32grpc_tls_certificate_distributorEeqEDn(ptr noundef nonnull align 8 dereferenceable(8) %identity_cert_distributor_, ptr null)
  br label %land.end

land.end:                                         ; preds = %land.rhs, %land.lhs.true3, %land.lhs.true, %entry
  %2 = phi i1 [ false, %land.lhs.true3 ], [ false, %land.lhs.true ], [ false, %entry ], [ %call4, %land.rhs ]
  ret i1 %2
}