; Function Attrs: mustprogress nofree norecurse nosync nounwind willreturn memory(argmem: read) uwtable
define noundef zeroext i1 @_ZNK9grpc_core22XdsCertificateProvider23ClusterCertificateState14IsSafeToRemoveEv(ptr nocapture noundef nonnull readonly align 8 dereferenceable(113) %this) local_unnamed_addr #5 align 2 {
entry:
  %watching_root_certs_ = getelementptr inbounds i8, ptr %this, i64 8
  %0 = load i8, ptr %watching_root_certs_, align 8
  %1 = and i8 %0, 1
  %tobool.not = icmp eq i8 %1, 0
  br i1 %tobool.not, label %land.lhs.true, label %land.end

land.lhs.true:                                    ; preds = %entry
  %watching_identity_certs_ = getelementptr inbounds i8, ptr %this, i64 9
  %2 = load i8, ptr %watching_identity_certs_, align 1
  %3 = and i8 %2, 1
  %tobool2.not = icmp eq i8 %3, 0
  %root_cert_distributor_ = getelementptr inbounds i8, ptr %this, i64 80
  %4 = load ptr, ptr %root_cert_distributor_, align 8
  %cmp.i = icmp eq ptr %4, null
  %or.cond = select i1 %tobool2.not, i1 %cmp.i, i1 false
  br i1 %or.cond, label %land.rhs, label %land.end

land.rhs:                                         ; preds = %land.lhs.true
  %identity_cert_distributor_ = getelementptr inbounds i8, ptr %this, i64 88
  %5 = load ptr, ptr %identity_cert_distributor_, align 8
  %cmp.i1 = icmp eq ptr %5, null
  br label %land.end

land.end:                                         ; preds = %land.rhs, %land.lhs.true, %entry
  %6 = phi i1 [ false, %land.lhs.true ], [ false, %entry ], [ %cmp.i1, %land.rhs ]
  ret i1 %6
}